target datalayout = "e-m:e-p270:32:32-p271:32:32-p272:64:64-i64:64-i128:128-f80:128-n8:16:32:64-S128"
target triple = "x86_64-pc-linux-gnu"

; Function Attrs: mustprogress nounwind uwtable
define internal void @_ZN6icu_77L19deleteNorm2AllModesEPv(ptr noundef %0) #0 {
  %2 = alloca ptr, align 8
  store ptr %0, ptr %2, align 8, !tbaa !27
  %3 = load ptr, ptr %2, align 8, !tbaa !27
  %4 = icmp eq ptr %3, null
  br i1 %4, label %6, label %5

5:                                                ; preds = %1
  call void @_ZN6icu_7713Norm2AllModesD1Ev(ptr noundef nonnull align 8 dereferenceable(88) %3) #12
  call void @_ZN6icu_777UMemorydlEPv(ptr noundef %3) #12
  br label %6

6:                                                ; preds = %5, %1
  ret void
}